target datalayout = "e-m:e-p270:32:32-p271:32:32-p272:64:64-i64:64-i128:128-f80:128-n8:16:32:64-S128"
target triple = "x86_64-pc-linux-gnu"

%struct.NTarjan = type { ptr, i32, i32, ptr, ptr, ptr, ptr, ptr, ptr, ptr, ptr }

; Function Attrs: mustprogress nounwind uwtable
define hidden void @_ZN7NTarjan4LINKEPS_S0_(ptr noundef nonnull align 8 dereferenceable(80) %0, ptr noundef %1, ptr noundef %2) #1 align 2 {
  %4 = alloca ptr, align 8
  %5 = alloca ptr, align 8
  %6 = alloca ptr, align 8
  %7 = alloca ptr, align 8
  %8 = alloca ptr, align 8
  store ptr %0, ptr %4, align 8
  store ptr %1, ptr %5, align 8
  store ptr %2, ptr %6, align 8
  %9 = load ptr, ptr %4, align 8
  %10 = load ptr, ptr %5, align 8
  store ptr %10, ptr %7, align 8
  br label %11

11:                                               ; preds = %70, %3
  %12 = load ptr, ptr %5, align 8
  %13 = getelementptr inbounds %struct.NTarjan, ptr %12, i32 0, i32 4
  %14 = load ptr, ptr %13, align 8
  %15 = getelementptr inbounds %struct.NTarjan, ptr %14, i32 0, i32 1
  %16 = load i32, ptr %15, align 8
  %17 = load ptr, ptr %7, align 8
  %18 = getelementptr inbounds %struct.NTarjan, ptr %17, i32 0, i32 6
  %19 = load ptr, ptr %18, align 8
  %20 = getelementptr inbounds %struct.NTarjan, ptr %19, i32 0, i32 4
  %21 = load ptr, ptr %20, align 8
  %22 = getelementptr inbounds %struct.NTarjan, ptr %21, i32 0, i32 1
  %23 = load i32, ptr %22, align 8
  %24 = icmp ult i32 %16, %23
  br i1 %24, label %25, label %71

25:                                               ; preds = %11
  %26 = load ptr, ptr %7, align 8
  %27 = getelementptr inbounds %struct.NTarjan, ptr %26, i32 0, i32 2
  %28 = load i32, ptr %27, align 4
  %29 = load ptr, ptr %7, align 8
  %30 = getelementptr inbounds %struct.NTarjan, ptr %29, i32 0, i32 6
  %31 = load ptr, ptr %30, align 8
  %32 = getelementptr inbounds %struct.NTarjan, ptr %31, i32 0, i32 6
  %33 = load ptr, ptr %32, align 8
  %34 = getelementptr inbounds %struct.NTarjan, ptr %33, i32 0, i32 2
  %35 = load i32, ptr %34, align 4
  %36 = add i32 %28, %35
  %37 = load ptr, ptr %7, align 8
  %38 = getelementptr inbounds %struct.NTarjan, ptr %37, i32 0, i32 6
  %39 = load ptr, ptr %38, align 8
  %40 = getelementptr inbounds %struct.NTarjan, ptr %39, i32 0, i32 2
  %41 = load i32, ptr %40, align 4
  %42 = shl i32 %41, 1
  %43 = icmp uge i32 %36, %42
  br i1 %43, label %44, label %57

44:                                               ; preds = %25
  %45 = load ptr, ptr %7, align 8
  %46 = load ptr, ptr %7, align 8
  %47 = getelementptr inbounds %struct.NTarjan, ptr %46, i32 0, i32 6
  %48 = load ptr, ptr %47, align 8
  %49 = getelementptr inbounds %struct.NTarjan, ptr %48, i32 0, i32 5
  store ptr %45, ptr %49, align 8
  %50 = load ptr, ptr %7, align 8
  %51 = getelementptr inbounds %struct.NTarjan, ptr %50, i32 0, i32 6
  %52 = load ptr, ptr %51, align 8
  %53 = getelementptr inbounds %struct.NTarjan, ptr %52, i32 0, i32 6
  %54 = load ptr, ptr %53, align 8
  %55 = load ptr, ptr %7, align 8
  %56 = getelementptr inbounds %struct.NTarjan, ptr %55, i32 0, i32 6
  store ptr %54, ptr %56, align 8
  br label %70

57:                                               ; preds = %25
  %58 = load ptr, ptr %7, align 8
  %59 = getelementptr inbounds %struct.NTarjan, ptr %58, i32 0, i32 2
  %60 = load i32, ptr %59, align 4
  %61 = load ptr, ptr %7, align 8
  %62 = getelementptr inbounds %struct.NTarjan, ptr %61, i32 0, i32 6
  %63 = load ptr, ptr %62, align 8
  %64 = getelementptr inbounds %struct.NTarjan, ptr %63, i32 0, i32 2
  store i32 %60, ptr %64, align 4
  %65 = load ptr, ptr %7, align 8
  %66 = getelementptr inbounds %struct.NTarjan, ptr %65, i32 0, i32 6
  %67 = load ptr, ptr %66, align 8
  %68 = load ptr, ptr %7, align 8
  %69 = getelementptr inbounds %struct.NTarjan, ptr %68, i32 0, i32 5
  store ptr %67, ptr %69, align 8
  store ptr %67, ptr %7, align 8
  br label %70

70:                                               ; preds = %57, %44
  br label %11, !llvm.loop !30

71:                                               ; preds = %11
  %72 = load ptr, ptr %5, align 8
  %73 = getelementptr inbounds %struct.NTarjan, ptr %72, i32 0, i32 4
  %74 = load ptr, ptr %73, align 8
  %75 = load ptr, ptr %7, align 8
  %76 = getelementptr inbounds %struct.NTarjan, ptr %75, i32 0, i32 4
  store ptr %74, ptr %76, align 8
  %77 = load ptr, ptr %5, align 8
  %78 = getelementptr inbounds %struct.NTarjan, ptr %77, i32 0, i32 2
  %79 = load i32, ptr %78, align 4
  %80 = getelementptr inbounds %struct.NTarjan, ptr %9, i32 0, i32 2
  %81 = load i32, ptr %80, align 4
  %82 = add i32 %81, %79
  store i32 %82, ptr %80, align 4
  %83 = getelementptr inbounds %struct.NTarjan, ptr %9, i32 0, i32 2
  %84 = load i32, ptr %83, align 4
  %85 = load ptr, ptr %5, align 8
  %86 = getelementptr inbounds %struct.NTarjan, ptr %85, i32 0, i32 2
  %87 = load i32, ptr %86, align 4
  %88 = shl i32 %87, 1
  %89 = icmp ult i32 %84, %88
  br i1 %89, label %90, label %96

90:                                               ; preds = %71
  %91 = load ptr, ptr %7, align 8
  store ptr %91, ptr %8, align 8
  %92 = getelementptr inbounds %struct.NTarjan, ptr %9, i32 0, i32 6
  %93 = load ptr, ptr %92, align 8
  store ptr %93, ptr %7, align 8
  %94 = load ptr, ptr %8, align 8
  %95 = getelementptr inbounds %struct.NTarjan, ptr %9, i32 0, i32 6
  store ptr %94, ptr %95, align 8
  br label %96

96:                                               ; preds = %90, %71
  br label %97

97:                                               ; preds = %101, %96
  %98 = load ptr, ptr %7, align 8
  %99 = load ptr, ptr %6, align 8
  %100 = icmp ne ptr %98, %99
  br i1 %100, label %101, label %107

101:                                              ; preds = %97
  %102 = load ptr, ptr %7, align 8
  %103 = getelementptr inbounds %struct.NTarjan, ptr %102, i32 0, i32 5
  store ptr %9, ptr %103, align 8
  %104 = load ptr, ptr %7, align 8
  %105 = getelementptr inbounds %struct.NTarjan, ptr %104, i32 0, i32 6
  %106 = load ptr, ptr %105, align 8
  store ptr %106, ptr %7, align 8
  br label %97, !llvm.loop !31

107:                                              ; preds = %97
  ret void
}